target datalayout = "e-m:e-p270:32:32-p271:32:32-p272:64:64-i64:64-i128:128-f80:128-n8:16:32:64-S128"
target triple = "x86_64-pc-linux-gnu"

%struct.ossl_record_layer_st = type { ptr, ptr, i32, i32, i32, i32, i32, ptr, i16, ptr, ptr, ptr, i64, i32, [33 x %struct.tls_buffer_st], i64, i64, %struct.tls_buffer_st, [32 x %struct.tls_rl_record_st], i64, i64, i64, i32, ptr, i64, [8 x i8], i32, i32, i64, i32, ptr, ptr, i64, ptr, ptr, i32, i32, i32, i64, i64, i64, [64 x i8], i32, i32, i32, ptr, ptr, i32, i32, i64, ptr, ptr, %struct.dtls_bitmap_st, %struct.dtls_bitmap_st, i32, ptr, ptr, ptr, ptr, ptr, i64, ptr }
%struct.tls_buffer_st = type { ptr, i64, i64, i64, i64, i32, i32 }
%struct.tls_rl_record_st = type { i32, i32, i64, i64, i64, ptr, ptr, ptr, i16, [8 x i8] }
%struct.dtls_bitmap_st = type { i64, [8 x i8] }

; Function Attrs: nounwind uwtable
define internal i64 @dtls_get_max_record_overhead(ptr noundef %0) #0 {
  %2 = alloca ptr, align 8
  %3 = alloca i64, align 8
  store ptr %0, ptr %2, align 8, !tbaa !3
  call void @llvm.lifetime.start.p0(i64 8, ptr %3) #6
  store i64 0, ptr %3, align 8, !tbaa !51
  %4 = load ptr, ptr %2, align 8, !tbaa !3
  %5 = getelementptr inbounds nuw %struct.ossl_record_layer_st, ptr %4, i32 0, i32 30
  %6 = load ptr, ptr %5, align 8, !tbaa !82
  %7 = icmp ne ptr %6, null
  br i1 %7, label %8, label %21

8:                                                ; preds = %1
  %9 = load ptr, ptr %2, align 8, !tbaa !3
  %10 = getelementptr inbounds nuw %struct.ossl_record_layer_st, ptr %9, i32 0, i32 30
  %11 = load ptr, ptr %10, align 8, !tbaa !82
  %12 = call ptr @EVP_CIPHER_CTX_get0_cipher(ptr noundef %11)
  %13 = call i32 @EVP_CIPHER_get_mode(ptr noundef %12)
  %14 = icmp eq i32 %13, 2
  br i1 %14, label %15, label %21

15:                                               ; preds = %8
  %16 = load ptr, ptr %2, align 8, !tbaa !3
  %17 = getelementptr inbounds nuw %struct.ossl_record_layer_st, ptr %16, i32 0, i32 30
  %18 = load ptr, ptr %17, align 8, !tbaa !82
  %19 = call i32 @EVP_CIPHER_CTX_get_block_size(ptr noundef %18)
  %20 = sext i32 %19 to i64
  store i64 %20, ptr %3, align 8, !tbaa !51
  br label %21

21:                                               ; preds = %15, %8, %1
  %22 = load ptr, ptr %2, align 8, !tbaa !3
  %23 = getelementptr inbounds nuw %struct.ossl_record_layer_st, ptr %22, i32 0, i32 32
  %24 = load i64, ptr %23, align 8, !tbaa !97
  %25 = add i64 13, %24
  %26 = load i64, ptr %3, align 8, !tbaa !51
  %27 = add i64 %25, %26
  %28 = load ptr, ptr %2, align 8, !tbaa !3
  %29 = getelementptr inbounds nuw %struct.ossl_record_layer_st, ptr %28, i32 0, i32 49
  %30 = load i64, ptr %29, align 8, !tbaa !124
  %31 = add i64 %27, %30
  call void @llvm.lifetime.end.p0(i64 8, ptr %3) #6
  ret i64 %31
}