; Function Attrs: nounwind uwtable
define internal i64 @dtls_get_max_record_overhead(ptr noundef readonly captures(none) %0) #0 {
  %2 = getelementptr inbounds nuw i8, ptr %0, i64 4128
  %3 = load ptr, ptr %2, align 8, !tbaa !63
  %.not = icmp eq ptr %3, null
  br i1 %.not, label %13, label %4

4:                                                ; preds = %1
  %5 = tail call ptr @EVP_CIPHER_CTX_get0_cipher(ptr noundef nonnull %3) #7
  %6 = tail call i32 @EVP_CIPHER_get_mode(ptr noundef %5) #7
  %7 = icmp eq i32 %6, 2
  br i1 %7, label %8, label %13

8:                                                ; preds = %4
  %9 = load ptr, ptr %2, align 8, !tbaa !63
  %10 = tail call i32 @EVP_CIPHER_CTX_get_block_size(ptr noundef %9) #7
  %11 = sext i32 %10 to i64
  %12 = add nsw i64 %11, 13
  br label %13

13:                                               ; preds = %8, %4, %1
  %.0 = phi i64 [ %12, %8 ], [ 13, %4 ], [ 13, %1 ]
  %14 = getelementptr inbounds nuw i8, ptr %0, i64 4144
  %15 = load i64, ptr %14, align 8, !tbaa !74
  %16 = getelementptr inbounds nuw i8, ptr %0, i64 4312
  %17 = load i64, ptr %16, align 8, !tbaa !86
  %18 = add i64 %.0, %15
  %19 = add i64 %18, %17
  ret i64 %19
}